target datalayout = "e-m:e-p270:32:32-p271:32:32-p272:64:64-i64:64-i128:128-f80:128-n8:16:32:64-S128"
target triple = "x86_64-pc-linux-gnu"

%struct.PyModuleDef = type { %struct.PyModuleDef_Base, ptr, ptr, i64, ptr, ptr, ptr, ptr, ptr }
%struct.PyModuleDef_Base = type { %struct._object, ptr, i64, ptr }
%struct._object = type { %union.anon, ptr }
%union.anon = type { i64 }
%struct.pysqlite_Connection = type { %struct._object, ptr, ptr, i32, ptr, i32, i32, i32, i64, ptr, ptr, ptr, i32, ptr, ptr, ptr, ptr, ptr, ptr, ptr, ptr, ptr, ptr, ptr, ptr, ptr, ptr, ptr }
%struct.pysqlite_state = type { ptr, ptr, ptr, ptr, ptr, ptr, ptr, ptr, ptr, ptr, ptr, ptr, ptr, i32, i32, ptr, ptr, ptr, ptr, ptr, ptr, ptr, ptr, ptr, ptr, ptr, ptr, ptr, ptr }
%struct.anon = type { i32, i32 }

@.str = private unnamed_addr constant [37 x i8] c"Base Connection.__init__ not called.\00", align 1
@.str.1 = private unnamed_addr constant [37 x i8] c"Cannot operate on a closed database.\00", align 1
@_sqlite3module = external global %struct.PyModuleDef, align 8

; Function Attrs: inlinehint nounwind uwtable
define internal ptr @pysqlite_get_state(ptr noundef %0) #2 {
  %2 = alloca ptr, align 8
  %3 = alloca ptr, align 8
  store ptr %0, ptr %2, align 8, !tbaa !22
  call void @llvm.lifetime.start.p0(i64 8, ptr %3) #8
  %4 = load ptr, ptr %2, align 8, !tbaa !22
  %5 = call ptr @PyModule_GetState(ptr noundef %4)
  store ptr %5, ptr %3, align 8, !tbaa !3
  %6 = load ptr, ptr %3, align 8, !tbaa !3
  call void @llvm.lifetime.end.p0(i64 8, ptr %3) #8
  ret ptr %6
}

; Function Attrs: alwaysinline nounwind uwtable
define internal void @Py_INCREF(ptr noundef %0) #5 {
  %2 = alloca ptr, align 8
  %3 = alloca i32, align 4
  %4 = alloca i32, align 4
  store ptr %0, ptr %2, align 8, !tbaa !22
  call void @llvm.lifetime.start.p0(i64 4, ptr %3) #8
  %5 = load ptr, ptr %2, align 8, !tbaa !22
  %6 = getelementptr inbounds nuw %struct._object, ptr %5, i32 0, i32 0
  %7 = getelementptr inbounds nuw %struct.anon, ptr %6, i32 0, i32 0
  %8 = load i32, ptr %7, align 8, !tbaa !65
  store i32 %8, ptr %3, align 4, !tbaa !30
  %9 = load i32, ptr %3, align 4, !tbaa !30
  %10 = icmp slt i32 %9, 0
  br i1 %10, label %11, label %12

11:                                               ; preds = %1
  store i32 1, ptr %4, align 4
  br label %18

12:                                               ; preds = %1
  %13 = load i32, ptr %3, align 4, !tbaa !30
  %14 = add i32 %13, 1
  %15 = load ptr, ptr %2, align 8, !tbaa !22
  %16 = getelementptr inbounds nuw %struct._object, ptr %15, i32 0, i32 0
  %17 = getelementptr inbounds nuw %struct.anon, ptr %16, i32 0, i32 0
  store i32 %14, ptr %17, align 8, !tbaa !65
  store i32 0, ptr %4, align 4
  br label %18

18:                                               ; preds = %12, %11
  call void @llvm.lifetime.end.p0(i64 4, ptr %3) #8
  %19 = load i32, ptr %4, align 4
  switch i32 %19, label %21 [
    i32 0, label %20
    i32 1, label %20
  ]

20:                                               ; preds = %18, %18
  ret void

21:                                               ; preds = %18
  unreachable
}

; Function Attrs: inlinehint nounwind uwtable
define internal ptr @pysqlite_get_state_by_type(ptr noundef %0) #2 {
  %2 = alloca ptr, align 8
  %3 = alloca ptr, align 8
  store ptr %0, ptr %2, align 8, !tbaa !21
  call void @llvm.lifetime.start.p0(i64 8, ptr %3) #8
  %4 = load ptr, ptr %2, align 8, !tbaa !21
  %5 = call ptr @PyType_GetModuleByDef(ptr noundef %4, ptr noundef @_sqlite3module)
  store ptr %5, ptr %3, align 8, !tbaa !22
  %6 = load ptr, ptr %3, align 8, !tbaa !22
  %7 = call ptr @pysqlite_get_state(ptr noundef %6)
  call void @llvm.lifetime.end.p0(i64 8, ptr %3) #8
  ret ptr %7
}

; Function Attrs: inlinehint nounwind uwtable
define internal ptr @_Py_TYPE(ptr noundef %0) #2 {
  %2 = alloca ptr, align 8
  store ptr %0, ptr %2, align 8, !tbaa !22
  %3 = load ptr, ptr %2, align 8, !tbaa !22
  %4 = getelementptr inbounds nuw %struct._object, ptr %3, i32 0, i32 1
  %5 = load ptr, ptr %4, align 8, !tbaa !23
  ret ptr %5
}

; Function Attrs: inlinehint nounwind uwtable
define internal ptr @_Py_NewRef(ptr noundef %0) #2 {
  %2 = alloca ptr, align 8
  store ptr %0, ptr %2, align 8, !tbaa !22
  %3 = load ptr, ptr %2, align 8, !tbaa !22
  call void @Py_INCREF(ptr noundef %3)
  %4 = load ptr, ptr %2, align 8, !tbaa !22
  ret ptr %4
}

; Function Attrs: nounwind uwtable
define hidden i32 @pysqlite_check_connection(ptr noundef %0) #0 {
  %2 = alloca i32, align 4
  %3 = alloca ptr, align 8
  %4 = alloca ptr, align 8
  store ptr %0, ptr %3, align 8, !tbaa !3
  %5 = load ptr, ptr %3, align 8, !tbaa !3
  %6 = getelementptr inbounds nuw %struct.pysqlite_Connection, ptr %5, i32 0, i32 7
  %7 = load i32, ptr %6, align 8, !tbaa !7
  %8 = icmp ne i32 %7, 0
  br i1 %8, label %16, label %9

9:                                                ; preds = %1
  call void @llvm.lifetime.start.p0(i64 8, ptr %4) #8
  %10 = load ptr, ptr %3, align 8, !tbaa !3
  %11 = call ptr @_Py_TYPE(ptr noundef %10)
  %12 = call ptr @pysqlite_get_state_by_type(ptr noundef %11)
  store ptr %12, ptr %4, align 8, !tbaa !3
  %13 = load ptr, ptr %4, align 8, !tbaa !3
  %14 = getelementptr inbounds nuw %struct.pysqlite_state, ptr %13, i32 0, i32 8
  %15 = load ptr, ptr %14, align 8, !tbaa !17
  call void @PyErr_SetString(ptr noundef %15, ptr noundef @.str)
  store i32 0, ptr %2, align 4
  call void @llvm.lifetime.end.p0(i64 8, ptr %4) #8
  br label %28

16:                                               ; preds = %1
  %17 = load ptr, ptr %3, align 8, !tbaa !3
  %18 = getelementptr inbounds nuw %struct.pysqlite_Connection, ptr %17, i32 0, i32 1
  %19 = load ptr, ptr %18, align 8, !tbaa !19
  %20 = icmp ne ptr %19, null
  br i1 %20, label %27, label %21

21:                                               ; preds = %16
  %22 = load ptr, ptr %3, align 8, !tbaa !3
  %23 = getelementptr inbounds nuw %struct.pysqlite_Connection, ptr %22, i32 0, i32 2
  %24 = load ptr, ptr %23, align 8, !tbaa !20
  %25 = getelementptr inbounds nuw %struct.pysqlite_state, ptr %24, i32 0, i32 8
  %26 = load ptr, ptr %25, align 8, !tbaa !17
  call void @PyErr_SetString(ptr noundef %26, ptr noundef @.str.1)
  store i32 0, ptr %2, align 4
  br label %28

27:                                               ; preds = %16
  store i32 1, ptr %2, align 4
  br label %28

28:                                               ; preds = %27, %21, %9
  %29 = load i32, ptr %2, align 4
  ret i32 %29
}

; Function Attrs: nounwind uwtable
define internal ptr @pysqlite_connection_enter_impl(ptr noundef %0) #0 {
  %2 = alloca ptr, align 8
  %3 = alloca ptr, align 8
  store ptr %0, ptr %3, align 8, !tbaa !3
  %4 = load ptr, ptr %3, align 8, !tbaa !3
  %5 = call i32 @pysqlite_check_connection(ptr noundef %4)
  %6 = icmp ne i32 %5, 0
  br i1 %6, label %8, label %7

7:                                                ; preds = %1
  store ptr null, ptr %2, align 8
  br label %11

8:                                                ; preds = %1
  %9 = load ptr, ptr %3, align 8, !tbaa !3
  %10 = call ptr @_Py_NewRef(ptr noundef %9)
  store ptr %10, ptr %2, align 8
  br label %11

11:                                               ; preds = %8, %7
  %12 = load ptr, ptr %2, align 8
  ret ptr %12
}

; Function Attrs: nounwind uwtable
define internal ptr @pysqlite_connection_enter(ptr noundef %0, ptr noundef %1) #0 {
  %3 = alloca ptr, align 8
  %4 = alloca ptr, align 8
  store ptr %0, ptr %3, align 8, !tbaa !22
  store ptr %1, ptr %4, align 8, !tbaa !22
  %5 = load ptr, ptr %3, align 8, !tbaa !22
  %6 = call ptr @pysqlite_connection_enter_impl(ptr noundef %5)
  ret ptr %6
}