; Function Attrs: nounwind uwtable
define internal noundef ptr @pysqlite_connection_enter(ptr noundef %0, ptr readnone captures(none) %1) #0 {
  %3 = getelementptr inbounds nuw i8, ptr %0, i64 56
  %4 = load i32, ptr %3, align 8, !tbaa !3
  %.not.i.i = icmp eq i32 %4, 0
  br i1 %.not.i.i, label %5, label %9

5:                                                ; preds = %2
  %6 = getelementptr i8, ptr %0, i64 8
  %.val.i.i = load ptr, ptr %6, align 8, !tbaa !16
  %7 = tail call ptr @PyType_GetModuleByDef(ptr noundef %.val.i.i, ptr noundef nonnull @_sqlite3module) #7
  %8 = tail call ptr @PyModule_GetState(ptr noundef %7) #7
  br label %pysqlite_check_connection.exit.thread.i

9:                                                ; preds = %2
  %10 = getelementptr inbounds nuw i8, ptr %0, i64 16
  %11 = load ptr, ptr %10, align 8, !tbaa !17
  %.not5.i.i = icmp eq ptr %11, null
  br i1 %.not5.i.i, label %12, label %pysqlite_check_connection.exit.i

12:                                               ; preds = %9
  %13 = getelementptr inbounds nuw i8, ptr %0, i64 24
  %14 = load ptr, ptr %13, align 8, !tbaa !18
  br label %pysqlite_check_connection.exit.thread.i

pysqlite_check_connection.exit.thread.i:          ; preds = %12, %5
  %.sink.i.i = phi ptr [ %14, %12 ], [ %8, %5 ]
  %.str.1.sink.i.i = phi ptr [ @.str.1, %12 ], [ @.str, %5 ]
  %15 = getelementptr inbounds nuw i8, ptr %.sink.i.i, i64 64
  %16 = load ptr, ptr %15, align 8, !tbaa !19
  tail call void @PyErr_SetString(ptr noundef %16, ptr noundef nonnull %.str.1.sink.i.i) #7
  br label %pysqlite_connection_enter_impl.exit

pysqlite_check_connection.exit.i:                 ; preds = %9
  %17 = load i32, ptr %0, align 8, !tbaa !34
  %18 = icmp slt i32 %17, 0
  br i1 %18, label %pysqlite_connection_enter_impl.exit, label %19

19:                                               ; preds = %pysqlite_check_connection.exit.i
  %20 = add nuw i32 %17, 1
  store i32 %20, ptr %0, align 8, !tbaa !34
  br label %pysqlite_connection_enter_impl.exit

pysqlite_connection_enter_impl.exit:              ; preds = %pysqlite_check_connection.exit.thread.i, %pysqlite_check_connection.exit.i, %19
  %.0.i = phi ptr [ null, %pysqlite_check_connection.exit.thread.i ], [ %0, %pysqlite_check_connection.exit.i ], [ %0, %19 ]
  ret ptr %.0.i
}